; Function Attrs: mustprogress uwtable
define hidden noundef ptr @_Z15mk_pb2bv_tacticR11ast_managerRK10params_ref(ptr noundef nonnull align 8 dereferenceable(976) %0, ptr noundef nonnull align 8 dereferenceable(8) %1) local_unnamed_addr #3 personality ptr @__gxx_personality_v0 {
  %3 = tail call noalias noundef ptr @_ZN6memory8allocateEm(i64 noundef 32)
  %4 = getelementptr inbounds nuw i8, ptr %3, i64 8
  store i32 0, ptr %4, align 8, !tbaa !3
  store ptr getelementptr inbounds nuw inrange(-16, 192) (i8, ptr @_ZTV12pb2bv_tactic, i64 16), ptr %3, align 8, !tbaa !9
  %5 = getelementptr inbounds nuw i8, ptr %3, i64 24
  tail call void @_ZN10params_refC1ERKS_(ptr noundef nonnull align 8 dereferenceable(8) %5, ptr noundef nonnull align 8 dereferenceable(8) %1)
  %6 = invoke noalias noundef ptr @_ZN6memory8allocateEm(i64 noundef 1008)
          to label %7 unwind label %8

7:                                                ; preds = %2
  invoke void @_ZN12pb2bv_tactic3impC2ER11ast_managerRK10params_ref(ptr noundef nonnull align 8 dereferenceable(1008) %6, ptr noundef nonnull align 8 dereferenceable(976) %0, ptr noundef nonnull align 8 dereferenceable(8) %1)
          to label %_ZN12pb2bv_tacticC2ER11ast_managerRK10params_ref.exit unwind label %8

8:                                                ; preds = %7, %2
  %9 = landingpad { ptr, i32 }
          cleanup
  tail call void @_ZN10params_refD1Ev(ptr noundef nonnull align 8 dereferenceable(8) %5) #23
  resume { ptr, i32 } %9

_ZN12pb2bv_tacticC2ER11ast_managerRK10params_ref.exit: ; preds = %7
  %10 = getelementptr inbounds nuw i8, ptr %3, i64 16
  store ptr %6, ptr %10, align 8, !tbaa !11
  %11 = tail call noundef ptr @_Z5cleanP6tactic(ptr noundef nonnull %3)
  ret ptr %11
}